(lp0
(I1
F0.15
F0.09
tp1
a(I2
F0.1657754010695187
F0.155
tp2
a(I3
F0.2903225806451613
F0.315
tp3
a(I4
F0.25892857142857145
F0.29
tp4
a(I5
F0.25333333333333335
F0.285
tp5
a(I6
F0.2523364485981308
F0.27
tp6
a(I7
F0.27722772277227725
F0.28
tp7
a(I8
F0.3081081081081081
F0.285
tp8
a(I9
F0.2696629213483146
F0.24
tp9
a(I10
F0.2994652406417112
F0.28
tp10
a(I11
F0.32
F0.28
tp11
a(I12
F0.2598870056497175
F0.23
tp12
a(I13
F0.3333333333333333
F0.285
tp13
a(I14
F0.3314285714285714
F0.29
tp14
a(I15
F0.3172043010752688
F0.295
tp15
a(I16
F0.2978723404255319
F0.28
tp16
a(I17
F0.3177083333333333
F0.305
tp17
a(I18
F0.30939226519337015
F0.28
tp18
a(I19
F0.324468085106383
F0.305
tp19
a(I20
F0.3050847457627119
F0.27
tp20
a(I21
F0.2967032967032967
F0.27
tp21
a.